(dp0
S'manta'
p1
(dp2
S'mantaMergeStatsBin'
p3
S'/export/home/jeffrey/Documents/sv-benchmarking/workflow/rules/.snakemake/conda/fe887fcb6bed2c25285d2874924504be_/share/manta-1.6.0-3/libexec/MergeAlignmentStats'
p4
sS'isExome'
p5
I00
sS'enableEvidenceSignalFilter'
p6
S'1'
p7
sS'existingAlignStatsFile'
p8
NsS'referenceFasta'
p9
S'/export/home/jeffrey/Documents/sv-benchmarking/resources/reference-genome/GRCh38_GIABv3_no_alt_analysis_set_maskedGRC_decoys_MAP2K3_KMT2C_KCNJ18.fasta'
p10
sS'hyGenSGEMemMb'
p11
I4096
sS'minPassSomaticScore'
p12
S'30'
p13
sS'tumorBamList'
p14
NsS'workflowScriptName'
p15
S'runWorkflow.py'
p16
sS'normalBamList'
p17
(lp18
S'/export/home/jeffrey/Documents/sv-benchmarking/resources/alignment-files/HG001.novoalign_sorted.cram'
p19
asS'estimateMemMb'
p20
F1536.0
sS'mantaSortVcf'
p21
S'/export/home/jeffrey/Documents/sv-benchmarking/workflow/rules/.snakemake/conda/fe887fcb6bed2c25285d2874924504be_/share/manta-1.6.0-3/libexec/sortVcf.py'
p22
sS'scanSizeMb'
p23
I12
sS'libexecDir'
p24
S'/export/home/jeffrey/Documents/sv-benchmarking/workflow/rules/.snakemake/conda/fe887fcb6bed2c25285d2874924504be_/share/manta-1.6.0-3/libexec'
p25
sS'isRetainTempFiles'
p26
I00
sS'isRNA'
p27
I00
sS'mantaSortEdgeLogs'
p28
S'/export/home/jeffrey/Documents/sv-benchmarking/workflow/rules/.snakemake/conda/fe887fcb6bed2c25285d2874924504be_/share/manta-1.6.0-3/libexec/sortEdgeLogs.py'
p29
sS'tabixBin'
p30
S'/export/home/jeffrey/Documents/sv-benchmarking/workflow/rules/.snakemake/conda/fe887fcb6bed2c25285d2874924504be_/share/manta-1.6.0-3/libexec/tabix'
p31
sS'rnaMinCandidateVariantSize'
p32
S'1000'
p33
sS'callRegionsBed'
p34
S'/export/home/jeffrey/Documents/sv-benchmarking/resources/manta/manta_main-contigs.bed.gz'
p35
sS'mantaPloidyFilter'
p36
S'/export/home/jeffrey/Documents/sv-benchmarking/workflow/rules/.snakemake/conda/fe887fcb6bed2c25285d2874924504be_/share/manta-1.6.0-3/libexec/ploidyFilter.py'
p37
sS'mantaSortBam'
p38
S'/export/home/jeffrey/Documents/sv-benchmarking/workflow/rules/.snakemake/conda/fe887fcb6bed2c25285d2874924504be_/share/manta-1.6.0-3/libexec/sortBam.py'
p39
sS'samtoolsBin'
p40
S'/export/home/jeffrey/Documents/sv-benchmarking/workflow/rules/.snakemake/conda/fe887fcb6bed2c25285d2874924504be_/share/manta-1.6.0-3/libexec/samtools'
p41
sS'useExistingChromDepths'
p42
I00
sS'vcfCmdlineSwapper'
p43
S'/export/home/jeffrey/Documents/sv-benchmarking/workflow/rules/.snakemake/conda/fe887fcb6bed2c25285d2874924504be_/share/manta-1.6.0-3/libexec/vcfCmdlineSwapper.py'
p44
sS'mantaExtraSmallVcf'
p45
S'/export/home/jeffrey/Documents/sv-benchmarking/workflow/rules/.snakemake/conda/fe887fcb6bed2c25285d2874924504be_/share/manta-1.6.0-3/libexec/extractSmallIndelCandidates.py'
p46
sS'mantaMergeBam'
p47
S'/export/home/jeffrey/Documents/sv-benchmarking/workflow/rules/.snakemake/conda/fe887fcb6bed2c25285d2874924504be_/share/manta-1.6.0-3/libexec/mergeBam.py'
p48
sS'mantaStatsSummaryBin'
p49
S'/export/home/jeffrey/Documents/sv-benchmarking/workflow/rules/.snakemake/conda/fe887fcb6bed2c25285d2874924504be_/share/manta-1.6.0-3/libexec/SummarizeAlignmentStats'
p50
sS'minScoredVariantSize'
p51
S'50'
p52
sS'mantaGraphStatsBin'
p53
S'/export/home/jeffrey/Documents/sv-benchmarking/workflow/rules/.snakemake/conda/fe887fcb6bed2c25285d2874924504be_/share/manta-1.6.0-3/libexec/SummarizeSVLoci'
p54
sS'mantaGraphCheckBin'
p55
S'/export/home/jeffrey/Documents/sv-benchmarking/workflow/rules/.snakemake/conda/fe887fcb6bed2c25285d2874924504be_/share/manta-1.6.0-3/libexec/CheckSVLoci'
p56
sS'minSomaticScore'
p57
S'10'
p58
sS'minCandidateVariantSize'
p59
S'8'
p60
sS'mantaGraphMergeBin'
p61
S'/export/home/jeffrey/Documents/sv-benchmarking/workflow/rules/.snakemake/conda/fe887fcb6bed2c25285d2874924504be_/share/manta-1.6.0-3/libexec/MergeSVLoci'
p62
sS'genomeRegionList'
p63
NsS'getChromDepthBin'
p64
S'/export/home/jeffrey/Documents/sv-benchmarking/workflow/rules/.snakemake/conda/fe887fcb6bed2c25285d2874924504be_/share/manta-1.6.0-3/libexec/GetChromDepth'
p65
sS'minPassDiploidGTScore'
p66
S'15'
p67
sS'graphNodeMaxEdgeCount'
p68
S'10'
p69
sS'enableRemoteReadRetrievalForInsertionsInCancerCallingModes'
p70
S'0'
p71
sS'mergeChromDepth'
p72
S'/export/home/jeffrey/Documents/sv-benchmarking/workflow/rules/.snakemake/conda/fe887fcb6bed2c25285d2874924504be_/share/manta-1.6.0-3/libexec/mergeChromDepth.py'
p73
sS'isUnstrandedRNA'
p74
I00
sS'catScript'
p75
S'/export/home/jeffrey/Documents/sv-benchmarking/workflow/rules/.snakemake/conda/fe887fcb6bed2c25285d2874924504be_/share/manta-1.6.0-3/libexec/cat.py'
p76
sS'runDir'
p77
S'/export/home/jeffrey/Documents/sv-benchmarking/outputs/manta/HG001/novoalign'
p78
sS'hyGenLocalMemMb'
p79
F1536.0
sS'enableRemoteReadRetrievalForInsertionsInGermlineCallingModes'
p80
g7
sS'mantaGraphBin'
p81
S'/export/home/jeffrey/Documents/sv-benchmarking/workflow/rules/.snakemake/conda/fe887fcb6bed2c25285d2874924504be_/share/manta-1.6.0-3/libexec/EstimateSVLoci'
p82
sS'regionStrList'
p83
NsS'mergeMemMb'
p84
I4096
sS'isGenerateSupportBam'
p85
I00
sS'minPassDiploidVariantScore'
p86
S'20'
p87
sS'callMemMbOverride'
p88
NsS'userConfigPath'
p89
NsS'minEdgeObservations'
p90
S'3'
p91
sS'minDiploidVariantScore'
p92
S'10'
p93
sS'minCandidateSpanningCount'
p94
g91
sS'mantaStatsBin'
p95
S'/export/home/jeffrey/Documents/sv-benchmarking/workflow/rules/.snakemake/conda/fe887fcb6bed2c25285d2874924504be_/share/manta-1.6.0-3/libexec/GetAlignmentStats'
p96
sS'mantaHyGenBin'
p97
S'/export/home/jeffrey/Documents/sv-benchmarking/workflow/rules/.snakemake/conda/fe887fcb6bed2c25285d2874924504be_/share/manta-1.6.0-3/libexec/GenerateSVCandidates'
p98
sS'htsfileBin'
p99
S'/export/home/jeffrey/Documents/sv-benchmarking/workflow/rules/.snakemake/conda/fe887fcb6bed2c25285d2874924504be_/share/manta-1.6.0-3/libexec/htsfile'
p100
sS'useOverlapPairEvidence'
p101
g71
sS'bgzipBin'
p102
S'/export/home/jeffrey/Documents/sv-benchmarking/workflow/rules/.snakemake/conda/fe887fcb6bed2c25285d2874924504be_/share/manta-1.6.0-3/libexec/bgzip'
p103
sS'configCommandLine'
p104
(lp105
S'/export/home/jeffrey/Documents/sv-benchmarking/workflow/rules/.snakemake/conda/fe887fcb6bed2c25285d2874924504be_/bin/configManta.py'
p106
aS'--bam'
p107
aS'../../resources/alignment-files/HG001.novoalign_sorted.cram'
p108
aS'--referenceFasta'
p109
aS'/export/home/jeffrey/Documents/sv-benchmarking/resources/reference-genome/GRCh38_GIABv3_no_alt_analysis_set_maskedGRC_decoys_MAP2K3_KMT2C_KCNJ18.fasta'
p110
aS'--callRegions'
p111
aS'../../resources/manta/manta_main-contigs.bed.gz'
p112
aS'--runDir'
p113
aS'../../outputs/manta/HG001/novoalign'
p114
asS'isOutputContig'
p115
I00
ss.